target datalayout = "e-m:e-p270:32:32-p271:32:32-p272:64:64-i64:64-i128:128-f80:128-n8:16:32:64-S128"
target triple = "x86_64-pc-linux-gnu"

%struct.Color = type { i8, i8, i8, i8 }
%struct.Vector2 = type { float, float }

; Function Attrs: nounwind uwtable
define void @DrawSplineSegmentCatmullRom(<2 x float> %0, <2 x float> %1, <2 x float> %2, <2 x float> %3, float noundef %4, i32 %5) #0 {
  %7 = alloca %struct.Vector2, align 4
  %8 = alloca %struct.Vector2, align 4
  %9 = alloca %struct.Vector2, align 4
  %10 = alloca %struct.Vector2, align 4
  %11 = alloca %struct.Color, align 1
  %12 = alloca float, align 4
  %13 = alloca float, align 4
  %14 = alloca %struct.Vector2, align 4
  %15 = alloca %struct.Vector2, align 4
  %16 = alloca float, align 4
  %17 = alloca [50 x %struct.Vector2], align 16
  %18 = alloca i32, align 4
  %19 = alloca float, align 4
  %20 = alloca float, align 4
  %21 = alloca float, align 4
  %22 = alloca float, align 4
  %23 = alloca float, align 4
  %24 = alloca float, align 4
  %25 = alloca float, align 4
  store <2 x float> %0, ptr %7, align 4
  store <2 x float> %1, ptr %8, align 4
  store <2 x float> %2, ptr %9, align 4
  store <2 x float> %3, ptr %10, align 4
  store i32 %5, ptr %11, align 1
  store float %4, ptr %12, align 4
  call void @llvm.lifetime.start.p0(i64 4, ptr %13) #8
  store float 0x3FA5555560000000, ptr %13, align 4
  call void @llvm.lifetime.start.p0(i64 8, ptr %14) #8
  call void @llvm.memcpy.p0.p0.i64(ptr align 4 %14, ptr align 4 %7, i64 8, i1 false)
  call void @llvm.lifetime.start.p0(i64 8, ptr %15) #8
  call void @llvm.memset.p0.i64(ptr align 4 %15, i8 0, i64 8, i1 false)
  call void @llvm.lifetime.start.p0(i64 4, ptr %16) #8
  store float 0.000000e+00, ptr %16, align 4
  call void @llvm.lifetime.start.p0(i64 400, ptr %17) #8
  call void @llvm.memset.p0.i64(ptr align 16 %17, i8 0, i64 400, i1 false)
  call void @llvm.lifetime.start.p0(i64 4, ptr %18) #8
  store i32 0, ptr %18, align 4
  br label %26

26:                                               ; preds = %212, %6
  %27 = load i32, ptr %18, align 4
  %28 = icmp sle i32 %27, 24
  br i1 %28, label %30, label %29

29:                                               ; preds = %26
  call void @llvm.lifetime.end.p0(i64 4, ptr %18) #8
  br label %215

30:                                               ; preds = %26
  %31 = load i32, ptr %18, align 4
  %32 = sitofp i32 %31 to float
  %33 = fmul float 0x3FA5555560000000, %32
  store float %33, ptr %16, align 4
  call void @llvm.lifetime.start.p0(i64 4, ptr %19) #8
  %34 = load float, ptr %16, align 4
  %35 = fmul float -1.000000e+00, %34
  %36 = load float, ptr %16, align 4
  %37 = fmul float %35, %36
  %38 = load float, ptr %16, align 4
  %39 = load float, ptr %16, align 4
  %40 = fmul float 2.000000e+00, %39
  %41 = load float, ptr %16, align 4
  %42 = fmul float %40, %41
  %43 = call float @llvm.fmuladd.f32(float %37, float %38, float %42)
  %44 = load float, ptr %16, align 4
  %45 = call float @llvm.fmuladd.f32(float -1.000000e+00, float %44, float %43)
  store float %45, ptr %19, align 4
  call void @llvm.lifetime.start.p0(i64 4, ptr %20) #8
  %46 = load float, ptr %16, align 4
  %47 = fmul float 3.000000e+00, %46
  %48 = load float, ptr %16, align 4
  %49 = fmul float %47, %48
  %50 = load float, ptr %16, align 4
  %51 = load float, ptr %16, align 4
  %52 = fmul float -5.000000e+00, %51
  %53 = load float, ptr %16, align 4
  %54 = fmul float %52, %53
  %55 = call float @llvm.fmuladd.f32(float %49, float %50, float %54)
  %56 = fadd float %55, 2.000000e+00
  store float %56, ptr %20, align 4
  call void @llvm.lifetime.start.p0(i64 4, ptr %21) #8
  %57 = load float, ptr %16, align 4
  %58 = fmul float -3.000000e+00, %57
  %59 = load float, ptr %16, align 4
  %60 = fmul float %58, %59
  %61 = load float, ptr %16, align 4
  %62 = load float, ptr %16, align 4
  %63 = fmul float 4.000000e+00, %62
  %64 = load float, ptr %16, align 4
  %65 = fmul float %63, %64
  %66 = call float @llvm.fmuladd.f32(float %60, float %61, float %65)
  %67 = load float, ptr %16, align 4
  %68 = fadd float %66, %67
  store float %68, ptr %21, align 4
  call void @llvm.lifetime.start.p0(i64 4, ptr %22) #8
  %69 = load float, ptr %16, align 4
  %70 = load float, ptr %16, align 4
  %71 = fmul float %69, %70
  %72 = load float, ptr %16, align 4
  %73 = load float, ptr %16, align 4
  %74 = load float, ptr %16, align 4
  %75 = fmul float %73, %74
  %76 = fneg float %75
  %77 = call float @llvm.fmuladd.f32(float %71, float %72, float %76)
  store float %77, ptr %22, align 4
  %78 = getelementptr inbounds nuw %struct.Vector2, ptr %7, i32 0, i32 0
  %79 = load float, ptr %78, align 4
  %80 = load float, ptr %19, align 4
  %81 = getelementptr inbounds nuw %struct.Vector2, ptr %8, i32 0, i32 0
  %82 = load float, ptr %81, align 4
  %83 = load float, ptr %20, align 4
  %84 = fmul float %82, %83
  %85 = call float @llvm.fmuladd.f32(float %79, float %80, float %84)
  %86 = getelementptr inbounds nuw %struct.Vector2, ptr %9, i32 0, i32 0
  %87 = load float, ptr %86, align 4
  %88 = load float, ptr %21, align 4
  %89 = call float @llvm.fmuladd.f32(float %87, float %88, float %85)
  %90 = getelementptr inbounds nuw %struct.Vector2, ptr %10, i32 0, i32 0
  %91 = load float, ptr %90, align 4
  %92 = load float, ptr %22, align 4
  %93 = call float @llvm.fmuladd.f32(float %91, float %92, float %89)
  %94 = fmul float 5.000000e-01, %93
  %95 = getelementptr inbounds nuw %struct.Vector2, ptr %15, i32 0, i32 0
  store float %94, ptr %95, align 4
  %96 = getelementptr inbounds nuw %struct.Vector2, ptr %7, i32 0, i32 1
  %97 = load float, ptr %96, align 4
  %98 = load float, ptr %19, align 4
  %99 = getelementptr inbounds nuw %struct.Vector2, ptr %8, i32 0, i32 1
  %100 = load float, ptr %99, align 4
  %101 = load float, ptr %20, align 4
  %102 = fmul float %100, %101
  %103 = call float @llvm.fmuladd.f32(float %97, float %98, float %102)
  %104 = getelementptr inbounds nuw %struct.Vector2, ptr %9, i32 0, i32 1
  %105 = load float, ptr %104, align 4
  %106 = load float, ptr %21, align 4
  %107 = call float @llvm.fmuladd.f32(float %105, float %106, float %103)
  %108 = getelementptr inbounds nuw %struct.Vector2, ptr %10, i32 0, i32 1
  %109 = load float, ptr %108, align 4
  %110 = load float, ptr %22, align 4
  %111 = call float @llvm.fmuladd.f32(float %109, float %110, float %107)
  %112 = fmul float 5.000000e-01, %111
  %113 = getelementptr inbounds nuw %struct.Vector2, ptr %15, i32 0, i32 1
  store float %112, ptr %113, align 4
  call void @llvm.lifetime.start.p0(i64 4, ptr %23) #8
  %114 = getelementptr inbounds nuw %struct.Vector2, ptr %15, i32 0, i32 1
  %115 = load float, ptr %114, align 4
  %116 = getelementptr inbounds nuw %struct.Vector2, ptr %14, i32 0, i32 1
  %117 = load float, ptr %116, align 4
  %118 = fsub float %115, %117
  store float %118, ptr %23, align 4
  call void @llvm.lifetime.start.p0(i64 4, ptr %24) #8
  %119 = getelementptr inbounds nuw %struct.Vector2, ptr %15, i32 0, i32 0
  %120 = load float, ptr %119, align 4
  %121 = getelementptr inbounds nuw %struct.Vector2, ptr %14, i32 0, i32 0
  %122 = load float, ptr %121, align 4
  %123 = fsub float %120, %122
  store float %123, ptr %24, align 4
  call void @llvm.lifetime.start.p0(i64 4, ptr %25) #8
  %124 = load float, ptr %12, align 4
  %125 = fmul float 5.000000e-01, %124
  %126 = load float, ptr %24, align 4
  %127 = load float, ptr %24, align 4
  %128 = load float, ptr %23, align 4
  %129 = load float, ptr %23, align 4
  %130 = fmul float %128, %129
  %131 = call float @llvm.fmuladd.f32(float %126, float %127, float %130)
  %132 = call float @sqrtf(float noundef %131) #8
  %133 = fdiv float %125, %132
  store float %133, ptr %25, align 4
  %134 = load i32, ptr %18, align 4
  %135 = icmp eq i32 %134, 1
  br i1 %135, label %136, label %167

136:                                              ; preds = %30
  %137 = getelementptr inbounds nuw %struct.Vector2, ptr %14, i32 0, i32 0
  %138 = load float, ptr %137, align 4
  %139 = load float, ptr %23, align 4
  %140 = load float, ptr %25, align 4
  %141 = call float @llvm.fmuladd.f32(float %139, float %140, float %138)
  %142 = getelementptr inbounds [50 x %struct.Vector2], ptr %17, i64 0, i64 0
  %143 = getelementptr inbounds nuw %struct.Vector2, ptr %142, i32 0, i32 0
  store float %141, ptr %143, align 16
  %144 = getelementptr inbounds nuw %struct.Vector2, ptr %14, i32 0, i32 1
  %145 = load float, ptr %144, align 4
  %146 = load float, ptr %24, align 4
  %147 = load float, ptr %25, align 4
  %148 = fneg float %146
  %149 = call float @llvm.fmuladd.f32(float %148, float %147, float %145)
  %150 = getelementptr inbounds [50 x %struct.Vector2], ptr %17, i64 0, i64 0
  %151 = getelementptr inbounds nuw %struct.Vector2, ptr %150, i32 0, i32 1
  store float %149, ptr %151, align 4
  %152 = getelementptr inbounds nuw %struct.Vector2, ptr %14, i32 0, i32 0
  %153 = load float, ptr %152, align 4
  %154 = load float, ptr %23, align 4
  %155 = load float, ptr %25, align 4
  %156 = fneg float %154
  %157 = call float @llvm.fmuladd.f32(float %156, float %155, float %153)
  %158 = getelementptr inbounds [50 x %struct.Vector2], ptr %17, i64 0, i64 1
  %159 = getelementptr inbounds nuw %struct.Vector2, ptr %158, i32 0, i32 0
  store float %157, ptr %159, align 8
  %160 = getelementptr inbounds nuw %struct.Vector2, ptr %14, i32 0, i32 1
  %161 = load float, ptr %160, align 4
  %162 = load float, ptr %24, align 4
  %163 = load float, ptr %25, align 4
  %164 = call float @llvm.fmuladd.f32(float %162, float %163, float %161)
  %165 = getelementptr inbounds [50 x %struct.Vector2], ptr %17, i64 0, i64 1
  %166 = getelementptr inbounds nuw %struct.Vector2, ptr %165, i32 0, i32 1
  store float %164, ptr %166, align 4
  br label %167

167:                                              ; preds = %136, %30
  %168 = getelementptr inbounds nuw %struct.Vector2, ptr %15, i32 0, i32 0
  %169 = load float, ptr %168, align 4
  %170 = load float, ptr %23, align 4
  %171 = load float, ptr %25, align 4
  %172 = fneg float %170
  %173 = call float @llvm.fmuladd.f32(float %172, float %171, float %169)
  %174 = load i32, ptr %18, align 4
  %175 = mul nsw i32 2, %174
  %176 = add nsw i32 %175, 1
  %177 = sext i32 %176 to i64
  %178 = getelementptr inbounds [50 x %struct.Vector2], ptr %17, i64 0, i64 %177
  %179 = getelementptr inbounds nuw %struct.Vector2, ptr %178, i32 0, i32 0
  store float %173, ptr %179, align 8
  %180 = getelementptr inbounds nuw %struct.Vector2, ptr %15, i32 0, i32 1
  %181 = load float, ptr %180, align 4
  %182 = load float, ptr %24, align 4
  %183 = load float, ptr %25, align 4
  %184 = call float @llvm.fmuladd.f32(float %182, float %183, float %181)
  %185 = load i32, ptr %18, align 4
  %186 = mul nsw i32 2, %185
  %187 = add nsw i32 %186, 1
  %188 = sext i32 %187 to i64
  %189 = getelementptr inbounds [50 x %struct.Vector2], ptr %17, i64 0, i64 %188
  %190 = getelementptr inbounds nuw %struct.Vector2, ptr %189, i32 0, i32 1
  store float %184, ptr %190, align 4
  %191 = getelementptr inbounds nuw %struct.Vector2, ptr %15, i32 0, i32 0
  %192 = load float, ptr %191, align 4
  %193 = load float, ptr %23, align 4
  %194 = load float, ptr %25, align 4
  %195 = call float @llvm.fmuladd.f32(float %193, float %194, float %192)
  %196 = load i32, ptr %18, align 4
  %197 = mul nsw i32 2, %196
  %198 = sext i32 %197 to i64
  %199 = getelementptr inbounds [50 x %struct.Vector2], ptr %17, i64 0, i64 %198
  %200 = getelementptr inbounds nuw %struct.Vector2, ptr %199, i32 0, i32 0
  store float %195, ptr %200, align 8
  %201 = getelementptr inbounds nuw %struct.Vector2, ptr %15, i32 0, i32 1
  %202 = load float, ptr %201, align 4
  %203 = load float, ptr %24, align 4
  %204 = load float, ptr %25, align 4
  %205 = fneg float %203
  %206 = call float @llvm.fmuladd.f32(float %205, float %204, float %202)
  %207 = load i32, ptr %18, align 4
  %208 = mul nsw i32 2, %207
  %209 = sext i32 %208 to i64
  %210 = getelementptr inbounds [50 x %struct.Vector2], ptr %17, i64 0, i64 %209
  %211 = getelementptr inbounds nuw %struct.Vector2, ptr %210, i32 0, i32 1
  store float %206, ptr %211, align 4
  call void @llvm.memcpy.p0.p0.i64(ptr align 4 %14, ptr align 4 %15, i64 8, i1 false)
  call void @llvm.lifetime.end.p0(i64 4, ptr %25) #8
  call void @llvm.lifetime.end.p0(i64 4, ptr %24) #8
  call void @llvm.lifetime.end.p0(i64 4, ptr %23) #8
  call void @llvm.lifetime.end.p0(i64 4, ptr %22) #8
  call void @llvm.lifetime.end.p0(i64 4, ptr %21) #8
  call void @llvm.lifetime.end.p0(i64 4, ptr %20) #8
  call void @llvm.lifetime.end.p0(i64 4, ptr %19) #8
  br label %212

212:                                              ; preds = %167
  %213 = load i32, ptr %18, align 4
  %214 = add nsw i32 %213, 1
  store i32 %214, ptr %18, align 4
  br label %26

215:                                              ; preds = %29
  %216 = getelementptr inbounds [50 x %struct.Vector2], ptr %17, i64 0, i64 0
  %217 = load i32, ptr %11, align 1
  call void @DrawTriangleStrip(ptr noundef %216, i32 noundef 50, i32 %217)
  call void @llvm.lifetime.end.p0(i64 400, ptr %17) #8
  call void @llvm.lifetime.end.p0(i64 4, ptr %16) #8
  call void @llvm.lifetime.end.p0(i64 8, ptr %15) #8
  call void @llvm.lifetime.end.p0(i64 8, ptr %14) #8
  call void @llvm.lifetime.end.p0(i64 4, ptr %13) #8
  ret void
}