; Function Attrs: nounwind uwtable
define void @DrawSplineSegmentCatmullRom(<2 x float> %0, <2 x float> %1, <2 x float> %2, <2 x float> %3, float noundef %4, i32 %5) local_unnamed_addr #4 {
  %7 = alloca [50 x %struct.Vector2], align 16
  %.sroa.071.0.vec.extract73 = extractelement <2 x float> %0, i64 0
  %.sroa.071.4.vec.extract75 = extractelement <2 x float> %0, i64 1
  call void @llvm.lifetime.start.p0(i64 400, ptr nonnull %7) #16
  call void @llvm.memset.p0.i64(ptr noundef nonnull align 16 dereferenceable(400) %7, i8 0, i64 400, i1 false)
  %.sroa.070.0.vec.extract = extractelement <2 x float> %1, i64 0
  %.sroa.069.0.vec.extract = extractelement <2 x float> %2, i64 0
  %.sroa.068.0.vec.extract = extractelement <2 x float> %3, i64 0
  %.sroa.070.4.vec.extract = extractelement <2 x float> %1, i64 1
  %.sroa.069.4.vec.extract = extractelement <2 x float> %2, i64 1
  %.sroa.068.4.vec.extract = extractelement <2 x float> %3, i64 1
  %8 = fmul float %4, 5.000000e-01
  %9 = getelementptr inbounds nuw i8, ptr %7, i64 4
  %10 = getelementptr inbounds nuw i8, ptr %7, i64 8
  %11 = getelementptr inbounds nuw i8, ptr %7, i64 12
  br label %13

12:                                               ; preds = %61
  call void @DrawTriangleStrip(ptr noundef nonnull %7, i32 noundef 50, i32 %5)
  call void @llvm.lifetime.end.p0(i64 400, ptr nonnull %7) #16
  ret void

13:                                               ; preds = %6, %61
  %indvars.iv = phi i64 [ 0, %6 ], [ %indvars.iv.next, %61 ]
  %.sroa.7.078 = phi float [ %.sroa.071.4.vec.extract75, %6 ], [ %47, %61 ]
  %.sroa.061.077 = phi float [ %.sroa.071.0.vec.extract73, %6 ], [ %42, %61 ]
  %14 = trunc nuw nsw i64 %indvars.iv to i32
  %15 = uitofp nneg i32 %14 to float
  %16 = fmul float %15, 0x3FA5555560000000
  %17 = fneg float %16
  %18 = fmul float %16, %17
  %19 = fmul float %16, 2.000000e+00
  %20 = fmul float %16, %19
  %21 = tail call float @llvm.fmuladd.f32(float %18, float %16, float %20)
  %22 = fsub float %21, %16
  %23 = fmul float %16, 3.000000e+00
  %24 = fmul float %16, %23
  %25 = fmul float %16, -5.000000e+00
  %26 = fmul float %16, %25
  %27 = tail call float @llvm.fmuladd.f32(float %24, float %16, float %26)
  %28 = fadd float %27, 2.000000e+00
  %29 = fmul float %16, -3.000000e+00
  %30 = fmul float %16, %29
  %31 = fmul float %16, 4.000000e+00
  %32 = fmul float %16, %31
  %33 = tail call float @llvm.fmuladd.f32(float %30, float %16, float %32)
  %34 = fadd float %16, %33
  %35 = fmul float %16, %16
  %36 = fneg float %35
  %37 = tail call float @llvm.fmuladd.f32(float %35, float %16, float %36)
  %38 = fmul float %.sroa.070.0.vec.extract, %28
  %39 = tail call float @llvm.fmuladd.f32(float %.sroa.071.0.vec.extract73, float %22, float %38)
  %40 = tail call float @llvm.fmuladd.f32(float %.sroa.069.0.vec.extract, float %34, float %39)
  %41 = tail call float @llvm.fmuladd.f32(float %.sroa.068.0.vec.extract, float %37, float %40)
  %42 = fmul float %41, 5.000000e-01
  %43 = fmul float %.sroa.070.4.vec.extract, %28
  %44 = tail call float @llvm.fmuladd.f32(float %.sroa.071.4.vec.extract75, float %22, float %43)
  %45 = tail call float @llvm.fmuladd.f32(float %.sroa.069.4.vec.extract, float %34, float %44)
  %46 = tail call float @llvm.fmuladd.f32(float %.sroa.068.4.vec.extract, float %37, float %45)
  %47 = fmul float %46, 5.000000e-01
  %48 = fsub float %47, %.sroa.7.078
  %49 = fsub float %42, %.sroa.061.077
  %50 = fmul float %48, %48
  %51 = tail call float @llvm.fmuladd.f32(float %49, float %49, float %50)
  %sqrt = tail call float @llvm.sqrt.f32(float %51)
  %52 = fdiv float %8, %sqrt
  %53 = icmp eq i64 %indvars.iv, 1
  br i1 %53, label %54, label %._crit_edge

._crit_edge:                                      ; preds = %13
  %.pre = fneg float %48
  %.pre80 = fneg float %49
  br label %61

54:                                               ; preds = %13
  %55 = tail call float @llvm.fmuladd.f32(float %48, float %52, float %.sroa.061.077)
  store float %55, ptr %7, align 16
  %56 = fneg float %49
  %57 = tail call float @llvm.fmuladd.f32(float %56, float %52, float %.sroa.7.078)
  store float %57, ptr %9, align 4
  %58 = fneg float %48
  %59 = tail call float @llvm.fmuladd.f32(float %58, float %52, float %.sroa.061.077)
  store float %59, ptr %10, align 8
  %60 = tail call float @llvm.fmuladd.f32(float %49, float %52, float %.sroa.7.078)
  store float %60, ptr %11, align 4
  br label %61

61:                                               ; preds = %._crit_edge, %54
  %.pre-phi81 = phi float [ %.pre80, %._crit_edge ], [ %56, %54 ]
  %.pre-phi = phi float [ %.pre, %._crit_edge ], [ %58, %54 ]
  %62 = tail call float @llvm.fmuladd.f32(float %.pre-phi, float %52, float %42)
  %63 = shl nuw nsw i64 %indvars.iv, 1
  %64 = or disjoint i64 %63, 1
  %65 = getelementptr inbounds nuw [50 x %struct.Vector2], ptr %7, i64 0, i64 %64
  store float %62, ptr %65, align 8
  %66 = tail call float @llvm.fmuladd.f32(float %49, float %52, float %47)
  %67 = getelementptr inbounds nuw i8, ptr %65, i64 4
  store float %66, ptr %67, align 4
  %68 = tail call float @llvm.fmuladd.f32(float %48, float %52, float %42)
  %69 = getelementptr inbounds nuw [50 x %struct.Vector2], ptr %7, i64 0, i64 %63
  store float %68, ptr %69, align 16
  %70 = tail call float @llvm.fmuladd.f32(float %.pre-phi81, float %52, float %47)
  %71 = getelementptr inbounds nuw i8, ptr %69, i64 4
  store float %70, ptr %71, align 4
  %indvars.iv.next = add nuw nsw i64 %indvars.iv, 1
  %exitcond.not = icmp eq i64 %indvars.iv.next, 25
  br i1 %exitcond.not, label %12, label %13
}